; Function Attrs: mustprogress nounwind uwtable
define dso_local void @_ZN4llvm18BinaryStreamReader9readBytesERNS_8ArrayRefIhEEj(ptr dead_on_unwind noalias writable sret(%"class.llvm::Error") align 8 %0, ptr noundef nonnull align 8 dereferenceable(64) %1, ptr noundef nonnull align 8 dereferenceable(16) %2, i32 noundef %3) local_unnamed_addr #1 align 2 {
_ZN4llvm5ErrorD2Ev.exit:
  %4 = getelementptr inbounds nuw i8, ptr %1, i64 8
  %5 = getelementptr inbounds nuw i8, ptr %1, i64 56
  %6 = load i64, ptr %5, align 8
  %7 = zext i32 %3 to i64
  tail call void @_ZNK4llvm15BinaryStreamRef9readBytesEmmRNS_8ArrayRefIhEE(ptr dead_on_unwind writable sret(%"class.llvm::Error") align 8 %0, ptr noundef nonnull align 8 dereferenceable(48) %4, i64 noundef %6, i64 noundef %7, ptr noundef nonnull align 8 dereferenceable(16) %2) #14
  %8 = load ptr, ptr %0, align 8
  %.not = icmp eq ptr %8, null
  br i1 %.not, label %_ZN4llvm12ErrorSuccessD2Ev.exit, label %11

_ZN4llvm12ErrorSuccessD2Ev.exit:                  ; preds = %_ZN4llvm5ErrorD2Ev.exit
  %9 = load i64, ptr %5, align 8
  %10 = add i64 %9, %7
  store i64 %10, ptr %5, align 8
  br label %11

11:                                               ; preds = %_ZN4llvm5ErrorD2Ev.exit, %_ZN4llvm12ErrorSuccessD2Ev.exit
  ret void
}